target datalayout = "e-m:e-p270:32:32-p271:32:32-p272:64:64-i64:64-i128:128-f80:128-n8:16:32:64-S128"
target triple = "x86_64-pc-linux-gnu"

%struct.IDAMemRec = type { ptr, double, ptr, ptr, i32, double, double, ptr, i32, i32, ptr, ptr, i32, i32, i32, ptr, ptr, i32, i32, double, double, ptr, i32, i32, i32, i32, ptr, ptr, i32, ptr, ptr, ptr, i32, double, i32, i32, double, ptr, ptr, ptr, i32, ptr, ptr, i32, i32, i32, double, ptr, ptr, ptr, [6 x ptr], [6 x double], [6 x double], [6 x double], [6 x double], [6 x double], ptr, ptr, ptr, ptr, ptr, ptr, ptr, ptr, ptr, ptr, ptr, ptr, ptr, ptr, ptr, ptr, ptr, [6 x ptr], ptr, ptr, ptr, ptr, [6 x ptr], ptr, ptr, ptr, ptr, ptr, ptr, ptr, ptr, ptr, ptr, ptr, ptr, ptr, ptr, ptr, ptr, [6 x ptr], ptr, ptr, ptr, ptr, ptr, double, ptr, ptr, i32, i32, i32, i32, i32, i32, i32, i32, double, double, double, i32, double, i32, i32, i32, i32, i32, double, double, double, double, double, double, double, double, double, double, double, double, double, double, double, double, double, i32, i32, i32, i32, i64, double, double, double, double, double, double, double, double, double, i64, i64, i64, i64, i64, i64, i64, i64, i64, i64, i64, i64, i64, i64, i64, i64, i64, i64, i64, i64, i64, i64, i64, i64, i64, i64, double, i32, i32, i32, i32, i32, i32, i32, i32, i32, i32, i32, i32, i32, ptr, i32, ptr, i32, ptr, i32, ptr, ptr, ptr, ptr, ptr, ptr, i32, i32, ptr, ptr, ptr, ptr, ptr, ptr, ptr, double, i32, i32, ptr, i32, ptr, ptr, double, double, double, ptr, ptr, ptr, double, double, i32, i32, i64, ptr, i32, ptr, [5 x double], ptr, ptr, i32, ptr, i32 }

; Function Attrs: nounwind uwtable
define double @IDASensWrmsNorm(ptr noundef %0, ptr noundef %1, ptr noundef %2, i32 noundef %3) #0 {
  %5 = alloca ptr, align 8
  %6 = alloca ptr, align 8
  %7 = alloca ptr, align 8
  %8 = alloca i32, align 4
  %9 = alloca i32, align 4
  %10 = alloca double, align 8
  store ptr %0, ptr %5, align 8, !tbaa !8
  store ptr %1, ptr %6, align 8, !tbaa !125
  store ptr %2, ptr %7, align 8, !tbaa !125
  store i32 %3, ptr %8, align 4, !tbaa !114
  call void @llvm.lifetime.start.p0(i64 4, ptr %9) #10
  call void @llvm.lifetime.start.p0(i64 8, ptr %10) #10
  %11 = load i32, ptr %8, align 4, !tbaa !114
  %12 = icmp ne i32 %11, 0
  br i1 %12, label %13, label %26

13:                                               ; preds = %4
  %14 = load ptr, ptr %5, align 8, !tbaa !8
  %15 = getelementptr inbounds nuw %struct.IDAMemRec, ptr %14, i32 0, i32 24
  %16 = load i32, ptr %15, align 8, !tbaa !203
  %17 = load ptr, ptr %6, align 8, !tbaa !125
  %18 = load ptr, ptr %7, align 8, !tbaa !125
  %19 = load ptr, ptr %5, align 8, !tbaa !8
  %20 = getelementptr inbounds nuw %struct.IDAMemRec, ptr %19, i32 0, i32 62
  %21 = load ptr, ptr %20, align 8, !tbaa !45
  %22 = load ptr, ptr %5, align 8, !tbaa !8
  %23 = getelementptr inbounds nuw %struct.IDAMemRec, ptr %22, i32 0, i32 234
  %24 = load ptr, ptr %23, align 8, !tbaa !134
  %25 = call i32 @N_VWrmsNormMaskVectorArray(i32 noundef %16, ptr noundef %17, ptr noundef %18, ptr noundef %21, ptr noundef %24)
  br label %36

26:                                               ; preds = %4
  %27 = load ptr, ptr %5, align 8, !tbaa !8
  %28 = getelementptr inbounds nuw %struct.IDAMemRec, ptr %27, i32 0, i32 24
  %29 = load i32, ptr %28, align 8, !tbaa !203
  %30 = load ptr, ptr %6, align 8, !tbaa !125
  %31 = load ptr, ptr %7, align 8, !tbaa !125
  %32 = load ptr, ptr %5, align 8, !tbaa !8
  %33 = getelementptr inbounds nuw %struct.IDAMemRec, ptr %32, i32 0, i32 234
  %34 = load ptr, ptr %33, align 8, !tbaa !134
  %35 = call i32 @N_VWrmsNormVectorArray(i32 noundef %29, ptr noundef %30, ptr noundef %31, ptr noundef %34)
  br label %36

36:                                               ; preds = %26, %13
  %37 = load ptr, ptr %5, align 8, !tbaa !8
  %38 = getelementptr inbounds nuw %struct.IDAMemRec, ptr %37, i32 0, i32 234
  %39 = load ptr, ptr %38, align 8, !tbaa !134
  %40 = getelementptr inbounds double, ptr %39, i64 0
  %41 = load double, ptr %40, align 8, !tbaa !123
  store double %41, ptr %10, align 8, !tbaa !123
  store i32 1, ptr %9, align 4, !tbaa !114
  br label %42

42:                                               ; preds = %67, %36
  %43 = load i32, ptr %9, align 4, !tbaa !114
  %44 = load ptr, ptr %5, align 8, !tbaa !8
  %45 = getelementptr inbounds nuw %struct.IDAMemRec, ptr %44, i32 0, i32 24
  %46 = load i32, ptr %45, align 8, !tbaa !203
  %47 = icmp slt i32 %43, %46
  br i1 %47, label %48, label %70

48:                                               ; preds = %42
  %49 = load ptr, ptr %5, align 8, !tbaa !8
  %50 = getelementptr inbounds nuw %struct.IDAMemRec, ptr %49, i32 0, i32 234
  %51 = load ptr, ptr %50, align 8, !tbaa !134
  %52 = load i32, ptr %9, align 4, !tbaa !114
  %53 = sext i32 %52 to i64
  %54 = getelementptr inbounds double, ptr %51, i64 %53
  %55 = load double, ptr %54, align 8, !tbaa !123
  %56 = load double, ptr %10, align 8, !tbaa !123
  %57 = fcmp ogt double %55, %56
  br i1 %57, label %58, label %66

58:                                               ; preds = %48
  %59 = load ptr, ptr %5, align 8, !tbaa !8
  %60 = getelementptr inbounds nuw %struct.IDAMemRec, ptr %59, i32 0, i32 234
  %61 = load ptr, ptr %60, align 8, !tbaa !134
  %62 = load i32, ptr %9, align 4, !tbaa !114
  %63 = sext i32 %62 to i64
  %64 = getelementptr inbounds double, ptr %61, i64 %63
  %65 = load double, ptr %64, align 8, !tbaa !123
  store double %65, ptr %10, align 8, !tbaa !123
  br label %66

66:                                               ; preds = %58, %48
  br label %67

67:                                               ; preds = %66
  %68 = load i32, ptr %9, align 4, !tbaa !114
  %69 = add nsw i32 %68, 1
  store i32 %69, ptr %9, align 4, !tbaa !114
  br label %42

70:                                               ; preds = %42
  %71 = load double, ptr %10, align 8, !tbaa !123
  call void @llvm.lifetime.end.p0(i64 8, ptr %10) #10
  call void @llvm.lifetime.end.p0(i64 4, ptr %9) #10
  ret double %71
}

; Function Attrs: nounwind uwtable
define double @IDASensWrmsNormUpdate(ptr noundef %0, double noundef %1, ptr noundef %2, ptr noundef %3, i32 noundef %4) #0 {
  %6 = alloca double, align 8
  %7 = alloca ptr, align 8
  %8 = alloca double, align 8
  %9 = alloca ptr, align 8
  %10 = alloca ptr, align 8
  %11 = alloca i32, align 4
  %12 = alloca double, align 8
  %13 = alloca i32, align 4
  store ptr %0, ptr %7, align 8, !tbaa !8
  store double %1, ptr %8, align 8, !tbaa !123
  store ptr %2, ptr %9, align 8, !tbaa !125
  store ptr %3, ptr %10, align 8, !tbaa !125
  store i32 %4, ptr %11, align 4, !tbaa !114
  call void @llvm.lifetime.start.p0(i64 8, ptr %12) #10
  %14 = load ptr, ptr %7, align 8, !tbaa !8
  %15 = load ptr, ptr %9, align 8, !tbaa !125
  %16 = load ptr, ptr %10, align 8, !tbaa !125
  %17 = load i32, ptr %11, align 4, !tbaa !114
  %18 = call double @IDASensWrmsNorm(ptr noundef %14, ptr noundef %15, ptr noundef %16, i32 noundef %17)
  store double %18, ptr %12, align 8, !tbaa !123
  %19 = load double, ptr %8, align 8, !tbaa !123
  %20 = load double, ptr %12, align 8, !tbaa !123
  %21 = fcmp ogt double %19, %20
  br i1 %21, label %22, label %24

22:                                               ; preds = %5
  %23 = load double, ptr %8, align 8, !tbaa !123
  store double %23, ptr %6, align 8
  store i32 1, ptr %13, align 4
  br label %26

24:                                               ; preds = %5
  %25 = load double, ptr %12, align 8, !tbaa !123
  store double %25, ptr %6, align 8
  store i32 1, ptr %13, align 4
  br label %26

26:                                               ; preds = %24, %22
  call void @llvm.lifetime.end.p0(i64 8, ptr %12) #10
  %27 = load double, ptr %6, align 8
  ret double %27
}