; Function Attrs: nounwind uwtable
define double @IDASensWrmsNormUpdate(ptr noundef readonly captures(none) %0, double noundef %1, ptr noundef %2, ptr noundef %3, i32 noundef %4) local_unnamed_addr #0 {
  %.not.i = icmp eq i32 %4, 0
  %6 = getelementptr inbounds nuw i8, ptr %0, i64 160
  %7 = load i32, ptr %6, align 8, !tbaa !167
  br i1 %.not.i, label %14, label %8

8:                                                ; preds = %5
  %9 = getelementptr inbounds nuw i8, ptr %0, i64 680
  %10 = load ptr, ptr %9, align 8, !tbaa !146
  %11 = getelementptr inbounds nuw i8, ptr %0, i64 2040
  %12 = load ptr, ptr %11, align 8, !tbaa !122
  %13 = tail call i32 @N_VWrmsNormMaskVectorArray(i32 noundef %7, ptr noundef %2, ptr noundef %3, ptr noundef %10, ptr noundef %12) #14
  br label %18

14:                                               ; preds = %5
  %15 = getelementptr inbounds nuw i8, ptr %0, i64 2040
  %16 = load ptr, ptr %15, align 8, !tbaa !122
  %17 = tail call i32 @N_VWrmsNormVectorArray(i32 noundef %7, ptr noundef %2, ptr noundef %3, ptr noundef %16) #14
  br label %18

18:                                               ; preds = %14, %8
  %19 = getelementptr inbounds nuw i8, ptr %0, i64 2040
  %20 = load ptr, ptr %19, align 8, !tbaa !122
  %21 = load double, ptr %20, align 8, !tbaa !87
  %22 = load i32, ptr %6, align 8, !tbaa !167
  %23 = icmp sgt i32 %22, 1
  br i1 %23, label %.lr.ph.preheader.i, label %IDASensWrmsNorm.exit

.lr.ph.preheader.i:                               ; preds = %18
  %wide.trip.count.i = zext nneg i32 %22 to i64
  br label %.lr.ph.i

.lr.ph.i:                                         ; preds = %.lr.ph.i, %.lr.ph.preheader.i
  %indvars.iv.i = phi i64 [ 1, %.lr.ph.preheader.i ], [ %indvars.iv.next.i, %.lr.ph.i ]
  %.022.i = phi double [ %21, %.lr.ph.preheader.i ], [ %.1.i, %.lr.ph.i ]
  %24 = getelementptr inbounds nuw double, ptr %20, i64 %indvars.iv.i
  %25 = load double, ptr %24, align 8, !tbaa !87
  %26 = fcmp ogt double %25, %.022.i
  %.1.i = select i1 %26, double %25, double %.022.i
  %indvars.iv.next.i = add nuw nsw i64 %indvars.iv.i, 1
  %exitcond.not.i = icmp eq i64 %indvars.iv.next.i, %wide.trip.count.i
  br i1 %exitcond.not.i, label %IDASensWrmsNorm.exit, label %.lr.ph.i

IDASensWrmsNorm.exit:                             ; preds = %.lr.ph.i, %18
  %.0.lcssa.i = phi double [ %21, %18 ], [ %.1.i, %.lr.ph.i ]
  %27 = fcmp ogt double %1, %.0.lcssa.i
  %. = select i1 %27, double %1, double %.0.lcssa.i
  ret double %.
}